; Function Attrs: mustprogress nounwind uwtable
define hidden void @_ZN15ContiguousSpace14object_iterateEP13ObjectClosure(ptr nocapture noundef nonnull readonly align 8 dereferenceable(24) %0, ptr noundef %1) local_unnamed_addr #2 align 2 {
  %3 = load ptr, ptr %0, align 8
  %4 = getelementptr inbounds i8, ptr %0, i64 16
  %5 = load ptr, ptr %4, align 8
  %6 = icmp ult ptr %3, %5
  br i1 %6, label %.lr.ph, label %._crit_edge

.lr.ph:                                           ; preds = %2, %_ZN7oopDesc4sizeEv.exit
  %.07 = phi ptr [ %64, %_ZN7oopDesc4sizeEv.exit ], [ %3, %2 ]
  %7 = load ptr, ptr %1, align 8
  %8 = load ptr, ptr %7, align 8
  tail call void %8(ptr noundef nonnull align 8 dereferenceable(8) %1, ptr noundef %.07) #7
  %9 = load i8, ptr @UseCompressedClassPointers, align 1
  %10 = trunc i8 %9 to i1
  %11 = getelementptr inbounds i8, ptr %.07, i64 8
  br i1 %10, label %12, label %22

12:                                               ; preds = %.lr.ph
  %13 = load i32, ptr %11, align 8
  %14 = load ptr, ptr @_ZN23CompressedKlassPointers5_baseE, align 8
  %15 = load i32, ptr @_ZN23CompressedKlassPointers6_shiftE, align 4
  %16 = ptrtoint ptr %14 to i64
  %17 = zext i32 %13 to i64
  %18 = zext nneg i32 %15 to i64
  %19 = shl i64 %17, %18
  %20 = add i64 %19, %16
  %21 = inttoptr i64 %20 to ptr
  br label %_ZNK7oopDesc5klassEv.exit.i

22:                                               ; preds = %.lr.ph
  %23 = load ptr, ptr %11, align 8
  br label %_ZNK7oopDesc5klassEv.exit.i

_ZNK7oopDesc5klassEv.exit.i:                      ; preds = %22, %12
  %.0.i.i = phi ptr [ %21, %12 ], [ %23, %22 ]
  %24 = getelementptr inbounds i8, ptr %.0.i.i, i64 8
  %25 = load i32, ptr %24, align 8
  %26 = icmp sgt i32 %25, 0
  br i1 %26, label %27, label %37

27:                                               ; preds = %_ZNK7oopDesc5klassEv.exit.i
  %28 = and i32 %25, 1
  %.not.i.i = icmp eq i32 %28, 0
  br i1 %.not.i.i, label %29, label %32

29:                                               ; preds = %27
  %30 = lshr i32 %25, 3
  %31 = zext nneg i32 %30 to i64
  br label %_ZN7oopDesc4sizeEv.exit

32:                                               ; preds = %27
  %33 = load ptr, ptr %.0.i.i, align 8
  %34 = getelementptr inbounds i8, ptr %33, i64 256
  %35 = load ptr, ptr %34, align 8
  %36 = tail call noundef i64 %35(ptr noundef nonnull align 8 dereferenceable(196) %.0.i.i, ptr noundef nonnull %.07) #7
  br label %_ZN7oopDesc4sizeEv.exit

37:                                               ; preds = %_ZNK7oopDesc5klassEv.exit.i
  %38 = icmp slt i32 %25, 0
  br i1 %38, label %39, label %59

39:                                               ; preds = %37
  %40 = select i1 %10, i64 12, i64 16
  %41 = getelementptr inbounds i8, ptr %.07, i64 %40
  %42 = load i32, ptr %41, align 4
  %43 = sext i32 %42 to i64
  %44 = and i32 %25, 63
  %45 = zext nneg i32 %44 to i64
  %46 = shl i64 %43, %45
  %47 = lshr i32 %25, 16
  %48 = and i32 %47, 255
  %49 = zext nneg i32 %48 to i64
  %50 = add i64 %46, %49
  %51 = load i32, ptr @MinObjAlignmentInBytes, align 4
  %52 = add nsw i32 %51, -1
  %53 = sext i32 %52 to i64
  %54 = add i64 %50, %53
  %55 = sub i32 0, %51
  %56 = sext i32 %55 to i64
  %57 = and i64 %54, %56
  %58 = lshr i64 %57, 3
  br label %_ZN7oopDesc4sizeEv.exit

59:                                               ; preds = %37
  %60 = load ptr, ptr %.0.i.i, align 8
  %61 = getelementptr inbounds i8, ptr %60, i64 256
  %62 = load ptr, ptr %61, align 8
  %63 = tail call noundef i64 %62(ptr noundef nonnull align 8 dereferenceable(196) %.0.i.i, ptr noundef nonnull %.07) #7
  br label %_ZN7oopDesc4sizeEv.exit

_ZN7oopDesc4sizeEv.exit:                          ; preds = %29, %32, %39, %59
  %.0.i1.i = phi i64 [ %36, %32 ], [ %31, %29 ], [ %58, %39 ], [ %63, %59 ]
  %64 = getelementptr inbounds ptr, ptr %.07, i64 %.0.i1.i
  %65 = load ptr, ptr %4, align 8
  %66 = icmp ult ptr %64, %65
  br i1 %66, label %.lr.ph, label %._crit_edge, !llvm.loop !8

._crit_edge:                                      ; preds = %_ZN7oopDesc4sizeEv.exit, %2
  ret void
}